target datalayout = "e-m:e-p270:32:32-p271:32:32-p272:64:64-i64:64-i128:128-f80:128-n8:16:32:64-S128"
target triple = "x86_64-pc-linux-gnu"

%struct.expert_field = type { i32, i32 }
%struct._packet_info = type { ptr, ptr, i32, i32, %struct.nstime_t, %struct.nstime_t, %struct.nstime_t, i8, ptr, ptr, ptr, ptr, %struct._address, %struct._address, %struct._address, %struct._address, %struct._address, %struct._address, i32, ptr, i8, [3 x i8], %struct.anon, i32, i32, i32, i32, ptr, i8, ptr, ptr, i16, i16, i32, i32, i16, i32, i32, ptr, ptr, ptr, i8, i8, i16, i16, i16, i32, i16, i16, ptr, ptr, ptr, ptr, ptr, i32, i32 }
%struct.nstime_t = type { i64, i32 }
%struct._address = type { i32, i32, ptr, ptr }
%struct.anon = type { i8, [3 x i8] }

@hf_mpls_pw_ach_ver = internal global i32 0, align 4
@hf_mpls_pw_ach_res = internal global i32 0, align 4
@hf_mpls_pw_ach_channel_type = internal global i32 0, align 4
@ett_mpls_pw_ach = internal global i32 0, align 4
@ei_mpls_pw_ach_error_processing_message = internal global %struct.expert_field zeroinitializer, align 4
@ei_mpls_pw_ach_res = internal global %struct.expert_field zeroinitializer, align 4
@proto_pw_ach = internal global i32 0, align 4
@pw_ach_subdissector_table = internal global ptr null, align 8

; Function Attrs: null_pointer_is_valid sspstrong uwtable
define internal i32 @dissect_pw_ach(ptr noundef %0, ptr noundef %1, ptr noundef %2, ptr noundef %3) #0 {
  %5 = alloca i32, align 4
  %6 = alloca ptr, align 8
  %7 = alloca ptr, align 8
  %8 = alloca ptr, align 8
  %9 = alloca ptr, align 8
  %10 = alloca ptr, align 8
  %11 = alloca i32, align 4
  %12 = alloca i32, align 4
  %13 = alloca ptr, align 8
  %14 = alloca ptr, align 8
  %15 = alloca i16, align 2
  store ptr %0, ptr %6, align 8
  store ptr %1, ptr %7, align 8
  store ptr %2, ptr %8, align 8
  store ptr %3, ptr %9, align 8
  call void @llvm.lifetime.start.p0(i64 8, ptr %10) #6
  call void @llvm.lifetime.start.p0(i64 4, ptr %11) #6
  %16 = load ptr, ptr %6, align 8
  %17 = call i32 @tvb_reported_length_remaining(ptr noundef %16, i32 noundef 0)
  %18 = icmp slt i32 %17, 4
  br i1 %18, label %19, label %26

19:                                               ; preds = %4
  %20 = load ptr, ptr %8, align 8
  %21 = load ptr, ptr %7, align 8
  %22 = load ptr, ptr %6, align 8
  %23 = call ptr @proto_tree_add_expert(ptr noundef %20, ptr noundef %21, ptr noundef @ei_mpls_pw_ach_error_processing_message, ptr noundef %22, i32 noundef 0, i32 noundef -1)
  %24 = load ptr, ptr %6, align 8
  %25 = call i32 @tvb_captured_length(ptr noundef %24)
  store i32 %25, ptr %5, align 4
  store i32 1, ptr %12, align 4
  br label %93

26:                                               ; preds = %4
  %27 = load ptr, ptr %6, align 8
  %28 = call zeroext i16 @tvb_get_ntohs(ptr noundef %27, i32 noundef 2)
  %29 = zext i16 %28 to i32
  store i32 %29, ptr %11, align 4
  %30 = load ptr, ptr %7, align 8
  %31 = getelementptr inbounds nuw %struct._packet_info, ptr %30, i32 0, i32 51
  %32 = load ptr, ptr %31, align 8
  %33 = load ptr, ptr %7, align 8
  %34 = load i32, ptr @proto_pw_ach, align 4
  %35 = load i32, ptr %11, align 4
  %36 = zext i32 %35 to i64
  %37 = inttoptr i64 %36 to ptr
  call void @p_add_proto_data(ptr noundef %32, ptr noundef %33, i32 noundef %34, i32 noundef 0, ptr noundef %37)
  call void @llvm.lifetime.start.p0(i64 8, ptr %13) #6
  call void @llvm.lifetime.start.p0(i64 8, ptr %14) #6
  call void @llvm.lifetime.start.p0(i64 2, ptr %15) #6
  %38 = load ptr, ptr %8, align 8
  %39 = load i32, ptr @proto_pw_ach, align 4
  %40 = load ptr, ptr %6, align 8
  %41 = call ptr @proto_tree_add_item(ptr noundef %38, i32 noundef %39, ptr noundef %40, i32 noundef 0, i32 noundef 4, i32 noundef 0)
  store ptr %41, ptr %14, align 8
  %42 = load ptr, ptr %14, align 8
  %43 = load i32, ptr @ett_mpls_pw_ach, align 4
  %44 = call ptr @proto_item_add_subtree(ptr noundef %42, i32 noundef %43)
  store ptr %44, ptr %13, align 8
  %45 = load ptr, ptr %13, align 8
  %46 = load i32, ptr @hf_mpls_pw_ach_ver, align 4
  %47 = load ptr, ptr %6, align 8
  %48 = call ptr @proto_tree_add_item(ptr noundef %45, i32 noundef %46, ptr noundef %47, i32 noundef 0, i32 noundef 1, i32 noundef 0)
  %49 = load ptr, ptr %6, align 8
  %50 = call zeroext i8 @tvb_get_uint8(ptr noundef %49, i32 noundef 1)
  %51 = zext i8 %50 to i16
  store i16 %51, ptr %15, align 2
  %52 = load ptr, ptr %13, align 8
  %53 = load i32, ptr @hf_mpls_pw_ach_res, align 4
  %54 = load ptr, ptr %6, align 8
  %55 = load i16, ptr %15, align 2
  %56 = zext i16 %55 to i32
  %57 = call ptr @proto_tree_add_uint(ptr noundef %52, i32 noundef %53, ptr noundef %54, i32 noundef 1, i32 noundef 1, i32 noundef %56)
  store ptr %57, ptr %14, align 8
  %58 = load i16, ptr %15, align 2
  %59 = zext i16 %58 to i32
  %60 = icmp ne i32 %59, 0
  br i1 %60, label %61, label %65

61:                                               ; preds = %26
  %62 = load ptr, ptr %7, align 8
  %63 = load ptr, ptr %14, align 8
  %64 = call ptr @expert_add_info(ptr noundef %62, ptr noundef %63, ptr noundef @ei_mpls_pw_ach_res)
  br label %65

65:                                               ; preds = %61, %26
  %66 = load ptr, ptr %13, align 8
  %67 = load i32, ptr @hf_mpls_pw_ach_channel_type, align 4
  %68 = load ptr, ptr %6, align 8
  %69 = call ptr @proto_tree_add_item(ptr noundef %66, i32 noundef %67, ptr noundef %68, i32 noundef 2, i32 noundef 2, i32 noundef 0)
  %70 = load ptr, ptr %6, align 8
  %71 = call ptr @tvb_new_subset_remaining(ptr noundef %70, i32 noundef 4)
  store ptr %71, ptr %10, align 8
  %72 = load ptr, ptr @pw_ach_subdissector_table, align 8
  %73 = load i32, ptr %11, align 4
  %74 = load ptr, ptr %10, align 8
  %75 = load ptr, ptr %7, align 8
  %76 = load ptr, ptr %8, align 8
  %77 = call i32 @dissector_try_uint(ptr noundef %72, i32 noundef %73, ptr noundef %74, ptr noundef %75, ptr noundef %76)
  %78 = icmp ne i32 %77, 0
  br i1 %78, label %84, label %79

79:                                               ; preds = %65
  %80 = load ptr, ptr %10, align 8
  %81 = load ptr, ptr %7, align 8
  %82 = load ptr, ptr %8, align 8
  %83 = call i32 @call_data_dissector(ptr noundef %80, ptr noundef %81, ptr noundef %82)
  br label %84

84:                                               ; preds = %79, %65
  %85 = load i32, ptr %11, align 4
  %86 = icmp eq i32 %85, 35
  br i1 %86, label %87, label %90

87:                                               ; preds = %84
  %88 = load ptr, ptr %10, align 8
  %89 = load ptr, ptr %8, align 8
  call void @dissect_bfd_mep(ptr noundef %88, ptr noundef %89, i32 noundef 0)
  br label %90

90:                                               ; preds = %87, %84
  %91 = load ptr, ptr %6, align 8
  %92 = call i32 @tvb_captured_length(ptr noundef %91)
  store i32 %92, ptr %5, align 4
  store i32 1, ptr %12, align 4
  call void @llvm.lifetime.end.p0(i64 2, ptr %15) #6
  call void @llvm.lifetime.end.p0(i64 8, ptr %14) #6
  call void @llvm.lifetime.end.p0(i64 8, ptr %13) #6
  br label %93

93:                                               ; preds = %90, %19
  call void @llvm.lifetime.end.p0(i64 4, ptr %11) #6
  call void @llvm.lifetime.end.p0(i64 8, ptr %10) #6
  %94 = load i32, ptr %5, align 4
  ret i32 %94
}