; Function Attrs: null_pointer_is_valid sspstrong uwtable
define internal i32 @dissect_pw_ach(ptr noundef %0, ptr noundef %1, ptr noundef %2, ptr readnone captures(none) %3) #0 {
  %5 = tail call i32 @tvb_reported_length_remaining(ptr noundef %0, i32 noundef 0)
  %6 = icmp slt i32 %5, 4
  br i1 %6, label %7, label %9

7:                                                ; preds = %4
  %8 = tail call ptr @proto_tree_add_expert(ptr noundef %2, ptr noundef %1, ptr noundef nonnull @ei_mpls_pw_ach_error_processing_message, ptr noundef %0, i32 noundef 0, i32 noundef -1)
  br label %40

9:                                                ; preds = %4
  %10 = tail call zeroext i16 @tvb_get_ntohs(ptr noundef %0, i32 noundef 2)
  %11 = zext i16 %10 to i32
  %12 = getelementptr inbounds nuw i8, ptr %1, i64 408
  %13 = load ptr, ptr %12, align 8
  %14 = load i32, ptr @proto_pw_ach, align 4
  %15 = zext i16 %10 to i64
  %16 = inttoptr i64 %15 to ptr
  tail call void @p_add_proto_data(ptr noundef %13, ptr noundef %1, i32 noundef %14, i32 noundef 0, ptr noundef %16)
  %17 = load i32, ptr @proto_pw_ach, align 4
  %18 = tail call ptr @proto_tree_add_item(ptr noundef %2, i32 noundef %17, ptr noundef %0, i32 noundef 0, i32 noundef 4, i32 noundef 0)
  %19 = load i32, ptr @ett_mpls_pw_ach, align 4
  %20 = tail call ptr @proto_item_add_subtree(ptr noundef %18, i32 noundef %19)
  %21 = load i32, ptr @hf_mpls_pw_ach_ver, align 4
  %22 = tail call ptr @proto_tree_add_item(ptr noundef %20, i32 noundef %21, ptr noundef %0, i32 noundef 0, i32 noundef 1, i32 noundef 0)
  %23 = tail call zeroext i8 @tvb_get_uint8(ptr noundef %0, i32 noundef 1)
  %24 = load i32, ptr @hf_mpls_pw_ach_res, align 4
  %25 = zext i8 %23 to i32
  %26 = tail call ptr @proto_tree_add_uint(ptr noundef %20, i32 noundef %24, ptr noundef %0, i32 noundef 1, i32 noundef 1, i32 noundef %25)
  %.not = icmp eq i8 %23, 0
  br i1 %.not, label %29, label %27

27:                                               ; preds = %9
  %28 = tail call ptr @expert_add_info(ptr noundef %1, ptr noundef %26, ptr noundef nonnull @ei_mpls_pw_ach_res)
  br label %29

29:                                               ; preds = %27, %9
  %30 = load i32, ptr @hf_mpls_pw_ach_channel_type, align 4
  %31 = tail call ptr @proto_tree_add_item(ptr noundef %20, i32 noundef %30, ptr noundef %0, i32 noundef 2, i32 noundef 2, i32 noundef 0)
  %32 = tail call ptr @tvb_new_subset_remaining(ptr noundef %0, i32 noundef 4)
  %33 = load ptr, ptr @pw_ach_subdissector_table, align 8
  %34 = tail call i32 @dissector_try_uint(ptr noundef %33, i32 noundef %11, ptr noundef %32, ptr noundef %1, ptr noundef %2)
  %.not35 = icmp eq i32 %34, 0
  br i1 %.not35, label %35, label %37

35:                                               ; preds = %29
  %36 = tail call i32 @call_data_dissector(ptr noundef %32, ptr noundef %1, ptr noundef %2)
  br label %37

37:                                               ; preds = %35, %29
  %38 = icmp eq i16 %10, 35
  br i1 %38, label %39, label %40

39:                                               ; preds = %37
  tail call void @dissect_bfd_mep(ptr noundef %32, ptr noundef %2, i32 noundef 0)
  br label %40

40:                                               ; preds = %37, %39, %7
  %41 = tail call i32 @tvb_captured_length(ptr noundef %0)
  ret i32 %41
}